target datalayout = "e-m:e-p270:32:32-p271:32:32-p272:64:64-i64:64-i128:128-f80:128-n8:16:32:64-S128"
target triple = "x86_64-pc-linux-gnu"

; Function Attrs: nounwind uwtable
define void @Ssw_RarManPrepareRandom(i32 noundef %0) #0 {
  %2 = alloca i32, align 4
  %3 = alloca i32, align 4
  store i32 %0, ptr %2, align 4, !tbaa !24
  call void @llvm.lifetime.start.p0(i64 4, ptr %3) #11
  %4 = call i32 @Aig_ManRandom(i32 noundef 1)
  store i32 0, ptr %3, align 4, !tbaa !24
  br label %5

5:                                                ; preds = %11, %1
  %6 = load i32, ptr %3, align 4, !tbaa !24
  %7 = load i32, ptr %2, align 4, !tbaa !24
  %8 = icmp slt i32 %6, %7
  br i1 %8, label %9, label %14

9:                                                ; preds = %5
  %10 = call i32 @Aig_ManRandom(i32 noundef 0)
  br label %11

11:                                               ; preds = %9
  %12 = load i32, ptr %3, align 4, !tbaa !24
  %13 = add nsw i32 %12, 1
  store i32 %13, ptr %3, align 4, !tbaa !24
  br label %5, !llvm.loop !25

14:                                               ; preds = %5
  call void @llvm.lifetime.end.p0(i64 4, ptr %3) #11
  ret void
}