; Function Attrs: nounwind uwtable
define void @Ssw_RarManPrepareRandom(i32 noundef %0) local_unnamed_addr #2 {
  %2 = tail call i32 @Aig_ManRandom(i32 noundef 1) #20
  %3 = icmp sgt i32 %0, 0
  br i1 %3, label %.lr.ph, label %._crit_edge

.lr.ph:                                           ; preds = %1, %.lr.ph
  %.03 = phi i32 [ %5, %.lr.ph ], [ 0, %1 ]
  %4 = tail call i32 @Aig_ManRandom(i32 noundef 0) #20
  %5 = add nuw nsw i32 %.03, 1
  %exitcond.not = icmp eq i32 %5, %0
  br i1 %exitcond.not, label %._crit_edge, label %.lr.ph, !llvm.loop !12

._crit_edge:                                      ; preds = %.lr.ph, %1
  ret void
}